; ModuleID = '24/467.c'
source_filename = "24/467.c"
target datalayout = "e-m:e-p270:32:32-p271:32:32-p272:64:64-i64:64-f80:128-n8:16:32:64-S128"
target triple = "x86_64-pc-linux-gnu"

@.str = private unnamed_addr constant [4 x i8] c"%s\0A\00", align 1

; Function Attrs: noinline nounwind uwtable
define dso_local void @main() #0 {
  %1 = alloca [1000 x i8], align 16
  %2 = alloca [50 x [100 x i8]], align 16
  %3 = alloca i32, align 4
  %4 = alloca i32, align 4
  %5 = alloca i32, align 4
  %6 = alloca i32, align 4
  %7 = alloca i32, align 4
  %8 = alloca i32, align 4
  store i32 0, i32* %7, align 4
  %9 = getelementptr inbounds [1000 x i8], [1000 x i8]* %1, i64 0, i64 0
  %10 = call i32 (i8*, ...) bitcast (i32 (...)* @gets to i32 (i8*, ...)*)(i8* %9)
  %11 = getelementptr inbounds [1000 x i8], [1000 x i8]* %1, i64 0, i64 0
  %12 = call i64 @strlen(i8* %11) #3
  %13 = trunc i64 %12 to i32
  store i32 %13, i32* %3, align 4
  %14 = load i32, i32* %3, align 4
  store i32 %14, i32* %8, align 4
  store i32 0, i32* %4, align 4
  store i32 0, i32* %6, align 4
  br label %15

15:                                               ; preds = %69, %0
  %16 = load i32, i32* %4, align 4
  %17 = load i32, i32* %3, align 4
  %18 = icmp slt i32 %16, %17
  br i1 %18, label %19, label %72

19:                                               ; preds = %15
  %20 = load i32, i32* %4, align 4
  %21 = sext i32 %20 to i64
  %22 = getelementptr inbounds [1000 x i8], [1000 x i8]* %1, i64 0, i64 %21
  %23 = load i8, i8* %22, align 1
  %24 = sext i8 %23 to i32
  %25 = icmp ne i32 %24, 32
  br i1 %25, label %26, label %68

26:                                               ; preds = %19
  %27 = load i32, i32* %4, align 4
  store i32 %27, i32* %5, align 4
  br label %28

28:                                               ; preds = %54, %26
  %29 = load i32, i32* %5, align 4
  %30 = load i32, i32* %3, align 4
  %31 = icmp slt i32 %29, %30
  br i1 %31, label %32, label %57

32:                                               ; preds = %28
  %33 = load i32, i32* %5, align 4
  %34 = sext i32 %33 to i64
  %35 = getelementptr inbounds [1000 x i8], [1000 x i8]* %1, i64 0, i64 %34
  %36 = load i8, i8* %35, align 1
  %37 = sext i8 %36 to i32
  %38 = icmp eq i32 %37, 32
  br i1 %38, label %39, label %40

39:                                               ; preds = %32
  br label %57

40:                                               ; preds = %32
  %41 = load i32, i32* %5, align 4
  %42 = sext i32 %41 to i64
  %43 = getelementptr inbounds [1000 x i8], [1000 x i8]* %1, i64 0, i64 %42
  %44 = load i8, i8* %43, align 1
  %45 = load i32, i32* %6, align 4
  %46 = sext i32 %45 to i64
  %47 = getelementptr inbounds [50 x [100 x i8]], [50 x [100 x i8]]* %2, i64 0, i64 %46
  %48 = load i32, i32* %5, align 4
  %49 = load i32, i32* %4, align 4
  %50 = sub nsw i32 %48, %49
  %51 = sext i32 %50 to i64
  %52 = getelementptr inbounds [100 x i8], [100 x i8]* %47, i64 0, i64 %51
  store i8 %44, i8* %52, align 1
  br label %53

53:                                               ; preds = %40
  br label %54

54:                                               ; preds = %53
  %55 = load i32, i32* %5, align 4
  %56 = add nsw i32 %55, 1
  store i32 %56, i32* %5, align 4
  br label %28

57:                                               ; preds = %39, %28
  %58 = load i32, i32* %6, align 4
  %59 = add nsw i32 %58, 1
  store i32 %59, i32* %6, align 4
  %60 = sext i32 %58 to i64
  %61 = getelementptr inbounds [50 x [100 x i8]], [50 x [100 x i8]]* %2, i64 0, i64 %60
  %62 = load i32, i32* %5, align 4
  %63 = load i32, i32* %4, align 4
  %64 = sub nsw i32 %62, %63
  %65 = sext i32 %64 to i64
  %66 = getelementptr inbounds [100 x i8], [100 x i8]* %61, i64 0, i64 %65
  store i8 0, i8* %66, align 1
  %67 = load i32, i32* %5, align 4
  store i32 %67, i32* %4, align 4
  br label %68

68:                                               ; preds = %57, %19
  br label %69

69:                                               ; preds = %68
  %70 = load i32, i32* %4, align 4
  %71 = add nsw i32 %70, 1
  store i32 %71, i32* %4, align 4
  br label %15

72:                                               ; preds = %15
  store i32 0, i32* %4, align 4
  br label %73

73:                                               ; preds = %110, %72
  %74 = load i32, i32* %4, align 4
  %75 = load i32, i32* %6, align 4
  %76 = icmp slt i32 %74, %75
  br i1 %76, label %77, label %113

77:                                               ; preds = %73
  %78 = load i32, i32* %4, align 4
  %79 = sext i32 %78 to i64
  %80 = getelementptr inbounds [50 x [100 x i8]], [50 x [100 x i8]]* %2, i64 0, i64 %79
  %81 = getelementptr inbounds [100 x i8], [100 x i8]* %80, i64 0, i64 0
  %82 = call i64 @strlen(i8* %81) #3
  %83 = trunc i64 %82 to i32
  %84 = load i32, i32* %7, align 4
  %85 = icmp sgt i32 %83, %84
  br i1 %85, label %86, label %93

86:                                               ; preds = %77
  %87 = load i32, i32* %4, align 4
  %88 = sext i32 %87 to i64
  %89 = getelementptr inbounds [50 x [100 x i8]], [50 x [100 x i8]]* %2, i64 0, i64 %88
  %90 = getelementptr inbounds [100 x i8], [100 x i8]* %89, i64 0, i64 0
  %91 = call i64 @strlen(i8* %90) #3
  %92 = trunc i64 %91 to i32
  store i32 %92, i32* %7, align 4
  br label %93

93:                                               ; preds = %86, %77
  %94 = load i32, i32* %4, align 4
  %95 = sext i32 %94 to i64
  %96 = getelementptr inbounds [50 x [100 x i8]], [50 x [100 x i8]]* %2, i64 0, i64 %95
  %97 = getelementptr inbounds [100 x i8], [100 x i8]* %96, i64 0, i64 0
  %98 = call i64 @strlen(i8* %97) #3
  %99 = trunc i64 %98 to i32
  %100 = load i32, i32* %8, align 4
  %101 = icmp slt i32 %99, %100
  br i1 %101, label %102, label %109

102:                                              ; preds = %93
  %103 = load i32, i32* %4, align 4
  %104 = sext i32 %103 to i64
  %105 = getelementptr inbounds [50 x [100 x i8]], [50 x [100 x i8]]* %2, i64 0, i64 %104
  %106 = getelementptr inbounds [100 x i8], [100 x i8]* %105, i64 0, i64 0
  %107 = call i64 @strlen(i8* %106) #3
  %108 = trunc i64 %107 to i32
  store i32 %108, i32* %8, align 4
  br label %109

109:                                              ; preds = %102, %93
  br label %110

110:                                              ; preds = %109
  %111 = load i32, i32* %4, align 4
  %112 = add nsw i32 %111, 1
  store i32 %112, i32* %4, align 4
  br label %73

113:                                              ; preds = %73
  store i32 0, i32* %4, align 4
  br label %114

114:                                              ; preds = %134, %113
  %115 = load i32, i32* %4, align 4
  %116 = load i32, i32* %6, align 4
  %117 = icmp slt i32 %115, %116
  br i1 %117, label %118, label %137

118:                                              ; preds = %114
  %119 = load i32, i32* %4, align 4
  %120 = sext i32 %119 to i64
  %121 = getelementptr inbounds [50 x [100 x i8]], [50 x [100 x i8]]* %2, i64 0, i64 %120
  %122 = getelementptr inbounds [100 x i8], [100 x i8]* %121, i64 0, i64 0
  %123 = call i64 @strlen(i8* %122) #3
  %124 = trunc i64 %123 to i32
  %125 = load i32, i32* %7, align 4
  %126 = icmp eq i32 %124, %125
  br i1 %126, label %127, label %133

127:                                              ; preds = %118
  %128 = load i32, i32* %4, align 4
  %129 = sext i32 %128 to i64
  %130 = getelementptr inbounds [50 x [100 x i8]], [50 x [100 x i8]]* %2, i64 0, i64 %129
  %131 = getelementptr inbounds [100 x i8], [100 x i8]* %130, i64 0, i64 0
  %132 = call i32 (i8*, ...) @printf(i8* getelementptr inbounds ([4 x i8], [4 x i8]* @.str, i64 0, i64 0), i8* %131)
  br label %137

133:                                              ; preds = %118
  br label %134

134:                                              ; preds = %133
  %135 = load i32, i32* %4, align 4
  %136 = add nsw i32 %135, 1
  store i32 %136, i32* %4, align 4
  br label %114

137:                                              ; preds = %127, %114
  store i32 0, i32* %4, align 4
  br label %138

138:                                              ; preds = %158, %137
  %139 = load i32, i32* %4, align 4
  %140 = load i32, i32* %6, align 4
  %141 = icmp slt i32 %139, %140
  br i1 %141, label %142, label %161

142:                                              ; preds = %138
  %143 = load i32, i32* %4, align 4
  %144 = sext i32 %143 to i64
  %145 = getelementptr inbounds [50 x [100 x i8]], [50 x [100 x i8]]* %2, i64 0, i64 %144
  %146 = getelementptr inbounds [100 x i8], [100 x i8]* %145, i64 0, i64 0
  %147 = call i64 @strlen(i8* %146) #3
  %148 = trunc i64 %147 to i32
  %149 = load i32, i32* %8, align 4
  %150 = icmp eq i32 %148, %149
  br i1 %150, label %151, label %157

151:                                              ; preds = %142
  %152 = load i32, i32* %4, align 4
  %153 = sext i32 %152 to i64
  %154 = getelementptr inbounds [50 x [100 x i8]], [50 x [100 x i8]]* %2, i64 0, i64 %153
  %155 = getelementptr inbounds [100 x i8], [100 x i8]* %154, i64 0, i64 0
  %156 = call i32 (i8*, ...) @printf(i8* getelementptr inbounds ([4 x i8], [4 x i8]* @.str, i64 0, i64 0), i8* %155)
  br label %161

157:                                              ; preds = %142
  br label %158

158:                                              ; preds = %157
  %159 = load i32, i32* %4, align 4
  %160 = add nsw i32 %159, 1
  store i32 %160, i32* %4, align 4
  br label %138

161:                                              ; preds = %151, %138
  ret void
}

declare dso_local i32 @gets(...) #1

; Function Attrs: nounwind readonly
declare dso_local i64 @strlen(i8*) #2

declare dso_local i32 @printf(i8*, ...) #1


!llvm.module.flags = !{!0}
!llvm.ident = !{!1}

!0 = !{i32 1, !"wchar_size", i32 4}
!1 = !{!"clang version 10.0.0-4ubuntu1 "}
